target datalayout = "e-m:e-p270:32:32-p271:32:32-p272:64:64-i64:64-i128:128-f80:128-n8:16:32:64-S128"
target triple = "x86_64-unknown-linux-gnu"

%"struct.std::_Rb_tree_key_compare" = type { %"struct.std::less" }
%"struct.std::less" = type { i8 }
%"struct.std::_Rb_tree_header" = type { %"struct.std::_Rb_tree_node_base", i64 }
%"struct.std::_Rb_tree_node_base" = type { i32, ptr, ptr, ptr }
%"class.std::__cxx11::basic_string" = type { %"struct.std::__cxx11::basic_string<char>::_Alloc_hider", i64, %union.anon }
%"struct.std::__cxx11::basic_string<char>::_Alloc_hider" = type { ptr }
%union.anon = type { i64, [8 x i8] }
%"class.grpc_core::RefCountedPtr.158" = type { ptr }
%"class.grpc_core::(anonymous namespace)::XdsResolver::RouteConfigData" = type { %"class.grpc_core::RefCounted", %"class.std::map.168", %"class.std::vector.173" }
%"class.grpc_core::RefCounted" = type { %"class.grpc_core::PolymorphicRefCount", %"class.grpc_core::RefCount" }
%"class.grpc_core::PolymorphicRefCount" = type { ptr }
%"class.grpc_core::RefCount" = type { %"struct.std::atomic.166" }
%"struct.std::atomic.166" = type { %"struct.std::__atomic_base.167" }
%"struct.std::__atomic_base.167" = type { i64 }
%"class.std::map.168" = type { %"class.std::_Rb_tree.169" }
%"class.std::_Rb_tree.169" = type { %"struct.std::_Rb_tree<std::basic_string_view<char>, std::pair<const std::basic_string_view<char>, grpc_core::RefCountedPtr<grpc_core::(anonymous namespace)::XdsResolver::ClusterRef>>, std::_Select1st<std::pair<const std::basic_string_view<char>, grpc_core::RefCountedPtr<grpc_core::(anonymous namespace)::XdsResolver::ClusterRef>>>, std::less<std::basic_string_view<char>>>::_Rb_tree_impl" }
%"struct.std::_Rb_tree<std::basic_string_view<char>, std::pair<const std::basic_string_view<char>, grpc_core::RefCountedPtr<grpc_core::(anonymous namespace)::XdsResolver::ClusterRef>>, std::_Select1st<std::pair<const std::basic_string_view<char>, grpc_core::RefCountedPtr<grpc_core::(anonymous namespace)::XdsResolver::ClusterRef>>>, std::less<std::basic_string_view<char>>>::_Rb_tree_impl" = type { %"struct.std::_Rb_tree_key_compare", %"struct.std::_Rb_tree_header" }
%"class.std::vector.173" = type { %"struct.std::_Vector_base.174" }
%"struct.std::_Vector_base.174" = type { %"struct.std::_Vector_base<grpc_core::(anonymous namespace)::XdsResolver::RouteConfigData::RouteEntry, std::allocator<grpc_core::(anonymous namespace)::XdsResolver::RouteConfigData::RouteEntry>>::_Vector_impl" }
%"struct.std::_Vector_base<grpc_core::(anonymous namespace)::XdsResolver::RouteConfigData::RouteEntry, std::allocator<grpc_core::(anonymous namespace)::XdsResolver::RouteConfigData::RouteEntry>>::_Vector_impl" = type { %"struct.std::_Vector_base<grpc_core::(anonymous namespace)::XdsResolver::RouteConfigData::RouteEntry, std::allocator<grpc_core::(anonymous namespace)::XdsResolver::RouteConfigData::RouteEntry>>::_Vector_impl_data" }
%"struct.std::_Vector_base<grpc_core::(anonymous namespace)::XdsResolver::RouteConfigData::RouteEntry, std::allocator<grpc_core::(anonymous namespace)::XdsResolver::RouteConfigData::RouteEntry>>::_Vector_impl_data" = type { ptr, ptr, ptr }
%"struct.std::_Rb_tree_key_compare.290" = type { %"struct.std::less.291" }
%"struct.std::less.291" = type { i8 }
%"class.std::map.489" = type { %"class.std::_Rb_tree.490" }
%"class.std::_Rb_tree.490" = type { %"struct.std::_Rb_tree<std::__cxx11::basic_string<char>, std::pair<const std::__cxx11::basic_string<char>, grpc_core::XdsHttpFilterImpl::FilterConfig>, std::_Select1st<std::pair<const std::__cxx11::basic_string<char>, grpc_core::XdsHttpFilterImpl::FilterConfig>>, std::less<std::__cxx11::basic_string<char>>>::_Rb_tree_impl" }
%"struct.std::_Rb_tree<std::__cxx11::basic_string<char>, std::pair<const std::__cxx11::basic_string<char>, grpc_core::XdsHttpFilterImpl::FilterConfig>, std::_Select1st<std::pair<const std::__cxx11::basic_string<char>, grpc_core::XdsHttpFilterImpl::FilterConfig>>, std::less<std::__cxx11::basic_string<char>>>::_Rb_tree_impl" = type { %"struct.std::_Rb_tree_key_compare.290", %"struct.std::_Rb_tree_header" }
%"struct.grpc_core::XdsRouteConfigResource::Route" = type { %"struct.grpc_core::XdsRouteConfigResource::Route::Matchers", %"class.std::variant.517", %"class.std::map.489" }
%"struct.grpc_core::XdsRouteConfigResource::Route::Matchers" = type { %"class.grpc_core::StringMatcher", %"class.std::vector.504", %"class.std::optional.509" }
%"class.grpc_core::StringMatcher" = type <{ i32, [4 x i8], %"class.std::__cxx11::basic_string", %"class.std::unique_ptr.496", i8, [7 x i8] }>
%"class.std::unique_ptr.496" = type { %"struct.std::__uniq_ptr_data.497" }
%"struct.std::__uniq_ptr_data.497" = type { %"class.std::__uniq_ptr_impl.498" }
%"class.std::__uniq_ptr_impl.498" = type { %"class.std::tuple.499" }
%"class.std::tuple.499" = type { %"struct.std::_Tuple_impl.500" }
%"struct.std::_Tuple_impl.500" = type { %"struct.std::_Head_base.503" }
%"struct.std::_Head_base.503" = type { ptr }
%"class.std::vector.504" = type { %"struct.std::_Vector_base.505" }
%"struct.std::_Vector_base.505" = type { %"struct.std::_Vector_base<grpc_core::HeaderMatcher, std::allocator<grpc_core::HeaderMatcher>>::_Vector_impl" }
%"struct.std::_Vector_base<grpc_core::HeaderMatcher, std::allocator<grpc_core::HeaderMatcher>>::_Vector_impl" = type { %"struct.std::_Vector_base<grpc_core::HeaderMatcher, std::allocator<grpc_core::HeaderMatcher>>::_Vector_impl_data" }
%"struct.std::_Vector_base<grpc_core::HeaderMatcher, std::allocator<grpc_core::HeaderMatcher>>::_Vector_impl_data" = type { ptr, ptr, ptr }
%"class.std::optional.509" = type { %"struct.std::_Optional_base.510" }
%"struct.std::_Optional_base.510" = type { %"struct.std::_Optional_payload.512" }
%"struct.std::_Optional_payload.512" = type { %"struct.std::_Optional_payload_base.base.514", [3 x i8] }
%"struct.std::_Optional_payload_base.base.514" = type <{ %"union.std::_Optional_payload_base<unsigned int>::_Storage", i8 }>
%"union.std::_Optional_payload_base<unsigned int>::_Storage" = type { i32 }
%"class.std::variant.517" = type { %"struct.std::__detail::__variant::_Variant_base.base.536", [7 x i8] }
%"struct.std::__detail::__variant::_Variant_base.base.536" = type { %"struct.std::__detail::__variant::_Move_assign_base.base.535" }
%"struct.std::__detail::__variant::_Move_assign_base.base.535" = type { %"struct.std::__detail::__variant::_Copy_assign_base.base.534" }
%"struct.std::__detail::__variant::_Copy_assign_base.base.534" = type { %"struct.std::__detail::__variant::_Move_ctor_base.base.533" }
%"struct.std::__detail::__variant::_Move_ctor_base.base.533" = type { %"struct.std::__detail::__variant::_Copy_ctor_base.base.532" }
%"struct.std::__detail::__variant::_Copy_ctor_base.base.532" = type { %"struct.std::__detail::__variant::_Variant_storage.base.531" }
%"struct.std::__detail::__variant::_Variant_storage.base.531" = type { %"union.std::__detail::__variant::_Variadic_union.524", i8 }
%"union.std::__detail::__variant::_Variadic_union.524" = type { %"union.std::__detail::__variant::_Variadic_union.526" }
%"union.std::__detail::__variant::_Variadic_union.526" = type { %"struct.std::__detail::__variant::_Uninitialized.527" }
%"struct.std::__detail::__variant::_Uninitialized.527" = type { %"struct.__gnu_cxx::__aligned_membuf.528" }
%"struct.__gnu_cxx::__aligned_membuf.528" = type { [112 x i8] }
%"struct.grpc_core::(anonymous namespace)::XdsResolver::RouteConfigData::RouteEntry" = type { %"struct.grpc_core::XdsRouteConfigResource::Route", %"class.grpc_core::RefCountedPtr.158", %"class.std::vector.709" }
%"class.std::vector.709" = type { %"struct.std::_Vector_base.710" }
%"struct.std::_Vector_base.710" = type { %"struct.std::_Vector_base<grpc_core::(anonymous namespace)::XdsResolver::RouteConfigData::RouteEntry::ClusterWeightState, std::allocator<grpc_core::(anonymous namespace)::XdsResolver::RouteConfigData::RouteEntry::ClusterWeightState>>::_Vector_impl" }
%"struct.std::_Vector_base<grpc_core::(anonymous namespace)::XdsResolver::RouteConfigData::RouteEntry::ClusterWeightState, std::allocator<grpc_core::(anonymous namespace)::XdsResolver::RouteConfigData::RouteEntry::ClusterWeightState>>::_Vector_impl" = type { %"struct.std::_Vector_base<grpc_core::(anonymous namespace)::XdsResolver::RouteConfigData::RouteEntry::ClusterWeightState, std::allocator<grpc_core::(anonymous namespace)::XdsResolver::RouteConfigData::RouteEntry::ClusterWeightState>>::_Vector_impl_data" }
%"struct.std::_Vector_base<grpc_core::(anonymous namespace)::XdsResolver::RouteConfigData::RouteEntry::ClusterWeightState, std::allocator<grpc_core::(anonymous namespace)::XdsResolver::RouteConfigData::RouteEntry::ClusterWeightState>>::_Vector_impl_data" = type { ptr, ptr, ptr }
%"class.grpc_core::(anonymous namespace)::XdsResolver::RouteConfigData::RouteListIterator" = type { %"class.grpc_core::XdsRouting::RouteListIterator", ptr }
%"class.grpc_core::XdsRouting::RouteListIterator" = type { ptr }

; Function Attrs: mustprogress nounwind uwtable
define internal noundef nonnull align 8 dereferenceable(288) ptr @_ZNKSt6vectorIN9grpc_core12_GLOBAL__N_111XdsResolver15RouteConfigData10RouteEntryESaIS4_EEixEm(ptr noundef nonnull align 8 dereferenceable(24) %this, i64 noundef %__n) #4 align 2 {
entry:
  %this.addr = alloca ptr, align 8
  %__n.addr = alloca i64, align 8
  store ptr %this, ptr %this.addr, align 8
  store i64 %__n, ptr %__n.addr, align 8
  %this1 = load ptr, ptr %this.addr, align 8
  %_M_impl = getelementptr inbounds %"struct.std::_Vector_base.174", ptr %this1, i32 0, i32 0
  %_M_start = getelementptr inbounds %"struct.std::_Vector_base<grpc_core::(anonymous namespace)::XdsResolver::RouteConfigData::RouteEntry, std::allocator<grpc_core::(anonymous namespace)::XdsResolver::RouteConfigData::RouteEntry>>::_Vector_impl_data", ptr %_M_impl, i32 0, i32 0
  %0 = load ptr, ptr %_M_start, align 8
  %1 = load i64, ptr %__n.addr, align 8
  %add.ptr = getelementptr inbounds %"struct.grpc_core::(anonymous namespace)::XdsResolver::RouteConfigData::RouteEntry", ptr %0, i64 %1
  ret ptr %add.ptr
}

; Function Attrs: mustprogress nounwind uwtable
define internal noundef nonnull align 8 dereferenceable(88) ptr @_ZNK9grpc_core12_GLOBAL__N_111XdsResolver15RouteConfigData17RouteListIterator19GetMatchersForRouteEm(ptr noundef nonnull align 8 dereferenceable(16) %this, i64 noundef %index) unnamed_addr #4 align 2 {
entry:
  %this.addr = alloca ptr, align 8
  %index.addr = alloca i64, align 8
  store ptr %this, ptr %this.addr, align 8
  store i64 %index, ptr %index.addr, align 8
  %this1 = load ptr, ptr %this.addr, align 8
  %route_table_ = getelementptr inbounds %"class.grpc_core::(anonymous namespace)::XdsResolver::RouteConfigData::RouteListIterator", ptr %this1, i32 0, i32 1
  %0 = load ptr, ptr %route_table_, align 8
  %routes_ = getelementptr inbounds %"class.grpc_core::(anonymous namespace)::XdsResolver::RouteConfigData", ptr %0, i32 0, i32 2
  %1 = load i64, ptr %index.addr, align 8
  %call = call noundef nonnull align 8 dereferenceable(288) ptr @_ZNKSt6vectorIN9grpc_core12_GLOBAL__N_111XdsResolver15RouteConfigData10RouteEntryESaIS4_EEixEm(ptr noundef nonnull align 8 dereferenceable(24) %routes_, i64 noundef %1) #3
  %route = getelementptr inbounds %"struct.grpc_core::(anonymous namespace)::XdsResolver::RouteConfigData::RouteEntry", ptr %call, i32 0, i32 0
  %matchers = getelementptr inbounds %"struct.grpc_core::XdsRouteConfigResource::Route", ptr %route, i32 0, i32 0
  ret ptr %matchers
}