; Function Attrs: mustprogress nofree norecurse nosync nounwind willreturn memory(read, inaccessiblemem: none) uwtable
define internal noundef nonnull align 8 dereferenceable(88) ptr @_ZNK9grpc_core12_GLOBAL__N_111XdsResolver15RouteConfigData17RouteListIterator19GetMatchersForRouteEm(ptr nocapture noundef nonnull readonly align 8 dereferenceable(16) %this, i64 noundef %index) unnamed_addr #21 align 2 {
entry:
  %route_table_ = getelementptr inbounds i8, ptr %this, i64 8
  %0 = load ptr, ptr %route_table_, align 8
  %routes_ = getelementptr inbounds i8, ptr %0, i64 64
  %routes_.val = load ptr, ptr %routes_, align 8
  %add.ptr.i = getelementptr inbounds %"struct.grpc_core::(anonymous namespace)::XdsResolver::RouteConfigData::RouteEntry", ptr %routes_.val, i64 %index
  ret ptr %add.ptr.i
}